; Function Attrs: nounwind uwtable
define range(i64 -60, 1) i64 @ZSTD_CCtx_reset(ptr noundef captures(none) %0, i32 noundef %1) local_unnamed_addr #2 {
  %3 = and i32 %1, -3
  %or.cond = icmp eq i32 %3, 1
  br i1 %or.cond, label %4, label %7

4:                                                ; preds = %2
  %5 = getelementptr inbounds nuw i8, ptr %0, i64 3640
  store i32 0, ptr %5, align 8, !tbaa !81
  %6 = getelementptr inbounds nuw i8, ptr %0, i64 784
  store i64 0, ptr %6, align 8, !tbaa !118
  br label %7

7:                                                ; preds = %2, %4
  %8 = and i32 %1, -2
  %or.cond3 = icmp eq i32 %8, 2
  br i1 %or.cond3, label %9, label %16

9:                                                ; preds = %7
  %10 = getelementptr inbounds nuw i8, ptr %0, i64 3640
  %11 = load i32, ptr %10, align 8, !tbaa !81
  %.not = icmp eq i32 %11, 0
  br i1 %.not, label %12, label %16

12:                                               ; preds = %9
  tail call fastcc void @ZSTD_clearAllDicts(ptr noundef nonnull %0)
  %13 = getelementptr inbounds nuw i8, ptr %0, i64 16
  tail call void @llvm.memset.p0.i64(ptr noundef nonnull align 8 dereferenceable(224) %13, i8 0, i64 224, i1 false)
  %14 = getelementptr inbounds nuw i8, ptr %0, i64 60
  store i32 3, ptr %14, align 4, !tbaa !43
  %15 = getelementptr inbounds nuw i8, ptr %0, i64 48
  store i32 1, ptr %15, align 8, !tbaa !44
  br label %16

16:                                               ; preds = %7, %9, %12
  %.0 = phi i64 [ 0, %12 ], [ -60, %9 ], [ 0, %7 ]
  ret i64 %.0
}